; Function Attrs: mustprogress uwtable
define void @_ZN7rocksdb14ThreadPoolImpl4Impl28SetBackgroundThreadsInternalEib(ptr noundef nonnull align 8 dereferenceable(240) %0, i32 noundef %1, i1 noundef zeroext %2) local_unnamed_addr #3 align 2 personality ptr @__gxx_personality_v0 {
  %4 = getelementptr inbounds nuw i8, ptr %0, i64 128
  %5 = tail call noundef i32 @pthread_mutex_lock(ptr noundef nonnull align 8 dereferenceable(40) %4) #26
  %.not.i.i = icmp eq i32 %5, 0
  br i1 %.not.i.i, label %_ZNSt10lock_guardISt5mutexEC2ERS0_.exit, label %6

6:                                                ; preds = %3
  tail call void @_ZSt20__throw_system_errori(i32 noundef %5) #29
  unreachable

_ZNSt10lock_guardISt5mutexEC2ERS0_.exit:          ; preds = %3
  %7 = getelementptr inbounds nuw i8, ptr %0, i64 40
  %8 = load i8, ptr %7, align 8, !tbaa !42, !range !56, !noundef !57
  %9 = trunc nuw i8 %8 to i1
  br i1 %9, label %20, label %10

10:                                               ; preds = %_ZNSt10lock_guardISt5mutexEC2ERS0_.exit
  %11 = getelementptr inbounds nuw i8, ptr %0, i64 24
  %12 = load i32, ptr %11, align 8, !tbaa !43
  %13 = icmp sgt i32 %1, %12
  %14 = icmp slt i32 %1, %12
  %brmerge.not = and i1 %2, %14
  %or.cond = or i1 %13, %brmerge.not
  br i1 %or.cond, label %15, label %20

15:                                               ; preds = %10
  %.sroa.speculated = tail call i32 @llvm.smax.i32(i32 %1, i32 0)
  store i32 %.sroa.speculated, ptr %11, align 8, !tbaa !43
  %16 = getelementptr inbounds nuw i8, ptr %0, i64 168
  tail call void @_ZNSt18condition_variable10notify_allEv(ptr noundef nonnull align 8 dereferenceable(48) %16) #26
  invoke void @_ZN7rocksdb14ThreadPoolImpl4Impl14StartBGThreadsEv(ptr noundef nonnull align 8 dereferenceable(240) %0)
          to label %20 unwind label %17

17:                                               ; preds = %15
  %18 = landingpad { ptr, i32 }
          cleanup
  %19 = tail call noundef i32 @pthread_mutex_unlock(ptr noundef nonnull align 8 dereferenceable(40) %4) #26
  resume { ptr, i32 } %18

20:                                               ; preds = %10, %15, %_ZNSt10lock_guardISt5mutexEC2ERS0_.exit
  %21 = tail call noundef i32 @pthread_mutex_unlock(ptr noundef nonnull align 8 dereferenceable(40) %4) #26
  ret void
}